target datalayout = "e-m:e-p270:32:32-p271:32:32-p272:64:64-i64:64-i128:128-f80:128-n8:16:32:64-S128"
target triple = "x86_64-pc-linux-gnu"

; Function Attrs: nounwind uwtable
define i32 @ff_vvc_intra_inv_angle_derive(i32 noundef %0) #0 {
  %2 = alloca i32, align 4
  %3 = alloca i32, align 4
  store i32 %0, ptr %3, align 4, !tbaa !4
  %4 = load i32, ptr %3, align 4, !tbaa !4
  %5 = icmp sgt i32 %4, 0
  br i1 %5, label %6, label %12

6:                                                ; preds = %1
  %7 = load i32, ptr %3, align 4, !tbaa !4
  %8 = ashr i32 %7, 1
  %9 = add nsw i32 16384, %8
  %10 = load i32, ptr %3, align 4, !tbaa !4
  %11 = sdiv i32 %9, %10
  store i32 %11, ptr %2, align 4
  br label %21

12:                                               ; preds = %1
  %13 = load i32, ptr %3, align 4, !tbaa !4
  %14 = sub nsw i32 0, %13
  %15 = ashr i32 %14, 1
  %16 = add nsw i32 16384, %15
  %17 = load i32, ptr %3, align 4, !tbaa !4
  %18 = sub nsw i32 0, %17
  %19 = sdiv i32 %16, %18
  %20 = sub nsw i32 0, %19
  store i32 %20, ptr %2, align 4
  br label %21

21:                                               ; preds = %12, %6
  %22 = load i32, ptr %2, align 4
  ret i32 %22
}