; Function Attrs: mustprogress nofree norecurse nosync nounwind willreturn memory(none) uwtable
define range(i32 -1073758207, 1073758208) i32 @ff_vvc_intra_inv_angle_derive(i32 noundef %0) local_unnamed_addr #0 {
  %2 = icmp sgt i32 %0, 0
  br i1 %2, label %3, label %7

3:                                                ; preds = %1
  %4 = lshr i32 %0, 1
  %5 = add nuw nsw i32 %4, 16384
  %6 = udiv i32 %5, %0
  br label %13

7:                                                ; preds = %1
  %8 = sub nsw i32 0, %0
  %9 = lshr i32 %8, 1
  %10 = add nuw nsw i32 %9, 16384
  %11 = udiv i32 %10, %8
  %12 = sub nsw i32 0, %11
  br label %13

13:                                               ; preds = %7, %3
  %.0 = phi i32 [ %6, %3 ], [ %12, %7 ]
  ret i32 %.0
}